; ModuleID = '35/866.c'
source_filename = "35/866.c"
target datalayout = "e-m:e-p270:32:32-p271:32:32-p272:64:64-i64:64-f80:128-n8:16:32:64-S128"
target triple = "x86_64-pc-linux-gnu"

@.str = private unnamed_addr constant [6 x i8] c"%d,%d\00", align 1
@.str.1 = private unnamed_addr constant [3 x i8] c"%d\00", align 1
@.str.2 = private unnamed_addr constant [7 x i8] c"%d+%d\0A\00", align 1
@.str.3 = private unnamed_addr constant [3 x i8] c"No\00", align 1

; Function Attrs: noinline nounwind uwtable
define dso_local void @main() #0 {
  %1 = alloca i32, align 4
  %2 = alloca i32, align 4
  %3 = alloca i32, align 4
  %4 = alloca i32, align 4
  %5 = alloca i32, align 4
  %6 = alloca i32, align 4
  %7 = alloca i32, align 4
  %8 = alloca i32, align 4
  %9 = alloca i32, align 4
  %10 = alloca [8 x [8 x i32]], align 16
  %11 = alloca [8 x [2 x i32]], align 16
  store i32 0, i32* %5, align 4
  store i32 0, i32* %7, align 4
  store i32 0, i32* %8, align 4
  store i32 0, i32* %9, align 4
  %12 = bitcast [8 x [8 x i32]]* %10 to i8*
  call void @llvm.memset.p0i8.i64(i8* align 16 %12, i8 0, i64 256, i1 false)
  %13 = bitcast [8 x [2 x i32]]* %11 to i8*
  call void @llvm.memset.p0i8.i64(i8* align 16 %13, i8 0, i64 64, i1 false)
  %14 = bitcast i8* %13 to [8 x [2 x i32]]*
  %15 = getelementptr inbounds [8 x [2 x i32]], [8 x [2 x i32]]* %14, i32 0, i32 0
  %16 = getelementptr inbounds [2 x i32], [2 x i32]* %15, i32 0, i32 0
  store i32 -1, i32* %16, align 16
  %17 = call i32 (i8*, ...) @__isoc99_scanf(i8* getelementptr inbounds ([6 x i8], [6 x i8]* @.str, i64 0, i64 0), i32* %1, i32* %2)
  store i32 0, i32* %3, align 4
  br label %18

18:                                               ; preds = %39, %0
  %19 = load i32, i32* %3, align 4
  %20 = load i32, i32* %1, align 4
  %21 = icmp slt i32 %19, %20
  br i1 %21, label %22, label %42

22:                                               ; preds = %18
  store i32 0, i32* %4, align 4
  br label %23

23:                                               ; preds = %35, %22
  %24 = load i32, i32* %4, align 4
  %25 = load i32, i32* %2, align 4
  %26 = icmp slt i32 %24, %25
  br i1 %26, label %27, label %38

27:                                               ; preds = %23
  %28 = load i32, i32* %3, align 4
  %29 = sext i32 %28 to i64
  %30 = getelementptr inbounds [8 x [8 x i32]], [8 x [8 x i32]]* %10, i64 0, i64 %29
  %31 = load i32, i32* %4, align 4
  %32 = sext i32 %31 to i64
  %33 = getelementptr inbounds [8 x i32], [8 x i32]* %30, i64 0, i64 %32
  %34 = call i32 (i8*, ...) @__isoc99_scanf(i8* getelementptr inbounds ([3 x i8], [3 x i8]* @.str.1, i64 0, i64 0), i32* %33)
  br label %35

35:                                               ; preds = %27
  %36 = load i32, i32* %4, align 4
  %37 = add nsw i32 %36, 1
  store i32 %37, i32* %4, align 4
  br label %23

38:                                               ; preds = %23
  br label %39

39:                                               ; preds = %38
  %40 = load i32, i32* %3, align 4
  %41 = add nsw i32 %40, 1
  store i32 %41, i32* %3, align 4
  br label %18

42:                                               ; preds = %18
  store i32 0, i32* %3, align 4
  br label %43

43:                                               ; preds = %117, %42
  %44 = load i32, i32* %3, align 4
  %45 = load i32, i32* %1, align 4
  %46 = icmp slt i32 %44, %45
  br i1 %46, label %47, label %120

47:                                               ; preds = %43
  %48 = load i32, i32* %3, align 4
  %49 = sext i32 %48 to i64
  %50 = getelementptr inbounds [8 x [8 x i32]], [8 x [8 x i32]]* %10, i64 0, i64 %49
  %51 = getelementptr inbounds [8 x i32], [8 x i32]* %50, i64 0, i64 0
  %52 = load i32, i32* %51, align 16
  store i32 %52, i32* %8, align 4
  store i32 1, i32* %4, align 4
  br label %53

53:                                               ; preds = %78, %47
  %54 = load i32, i32* %4, align 4
  %55 = load i32, i32* %2, align 4
  %56 = icmp slt i32 %54, %55
  br i1 %56, label %57, label %81

57:                                               ; preds = %53
  %58 = load i32, i32* %3, align 4
  %59 = sext i32 %58 to i64
  %60 = getelementptr inbounds [8 x [8 x i32]], [8 x [8 x i32]]* %10, i64 0, i64 %59
  %61 = load i32, i32* %4, align 4
  %62 = sext i32 %61 to i64
  %63 = getelementptr inbounds [8 x i32], [8 x i32]* %60, i64 0, i64 %62
  %64 = load i32, i32* %63, align 4
  %65 = load i32, i32* %8, align 4
  %66 = icmp sgt i32 %64, %65
  br i1 %66, label %67, label %76

67:                                               ; preds = %57
  %68 = load i32, i32* %3, align 4
  %69 = sext i32 %68 to i64
  %70 = getelementptr inbounds [8 x [8 x i32]], [8 x [8 x i32]]* %10, i64 0, i64 %69
  %71 = load i32, i32* %4, align 4
  %72 = sext i32 %71 to i64
  %73 = getelementptr inbounds [8 x i32], [8 x i32]* %70, i64 0, i64 %72
  %74 = load i32, i32* %73, align 4
  store i32 %74, i32* %8, align 4
  %75 = load i32, i32* %4, align 4
  store i32 %75, i32* %5, align 4
  br label %77

76:                                               ; preds = %57
  br label %78

77:                                               ; preds = %67
  br label %78

78:                                               ; preds = %77, %76
  %79 = load i32, i32* %4, align 4
  %80 = add nsw i32 %79, 1
  store i32 %80, i32* %4, align 4
  br label %53

81:                                               ; preds = %53
  store i32 0, i32* %6, align 4
  br label %82

82:                                               ; preds = %98, %81
  %83 = load i32, i32* %6, align 4
  %84 = load i32, i32* %1, align 4
  %85 = icmp slt i32 %83, %84
  br i1 %85, label %86, label %101

86:                                               ; preds = %82
  %87 = load i32, i32* %8, align 4
  %88 = load i32, i32* %6, align 4
  %89 = sext i32 %88 to i64
  %90 = getelementptr inbounds [8 x [8 x i32]], [8 x [8 x i32]]* %10, i64 0, i64 %89
  %91 = load i32, i32* %5, align 4
  %92 = sext i32 %91 to i64
  %93 = getelementptr inbounds [8 x i32], [8 x i32]* %90, i64 0, i64 %92
  %94 = load i32, i32* %93, align 4
  %95 = icmp sle i32 %87, %94
  br i1 %95, label %96, label %97

96:                                               ; preds = %86
  br label %98

97:                                               ; preds = %86
  store i32 1, i32* %7, align 4
  br label %101

98:                                               ; preds = %96
  %99 = load i32, i32* %6, align 4
  %100 = add nsw i32 %99, 1
  store i32 %100, i32* %6, align 4
  br label %82

101:                                              ; preds = %97, %82
  %102 = load i32, i32* %7, align 4
  %103 = icmp eq i32 %102, 0
  br i1 %103, label %104, label %115

104:                                              ; preds = %101
  %105 = load i32, i32* %3, align 4
  %106 = load i32, i32* %3, align 4
  %107 = sext i32 %106 to i64
  %108 = getelementptr inbounds [8 x [2 x i32]], [8 x [2 x i32]]* %11, i64 0, i64 %107
  %109 = getelementptr inbounds [2 x i32], [2 x i32]* %108, i64 0, i64 0
  store i32 %105, i32* %109, align 8
  %110 = load i32, i32* %5, align 4
  %111 = load i32, i32* %3, align 4
  %112 = sext i32 %111 to i64
  %113 = getelementptr inbounds [8 x [2 x i32]], [8 x [2 x i32]]* %11, i64 0, i64 %112
  %114 = getelementptr inbounds [2 x i32], [2 x i32]* %113, i64 0, i64 1
  store i32 %110, i32* %114, align 4
  br label %116

115:                                              ; preds = %101
  br label %120

116:                                              ; preds = %104
  br label %117

117:                                              ; preds = %116
  %118 = load i32, i32* %3, align 4
  %119 = add nsw i32 %118, 1
  store i32 %119, i32* %3, align 4
  br label %43

120:                                              ; preds = %115, %43
  %121 = getelementptr inbounds [8 x [2 x i32]], [8 x [2 x i32]]* %11, i64 0, i64 0
  %122 = getelementptr inbounds [2 x i32], [2 x i32]* %121, i64 0, i64 0
  %123 = load i32, i32* %122, align 16
  %124 = icmp sge i32 %123, 0
  br i1 %124, label %125, label %140

125:                                              ; preds = %120
  %126 = getelementptr inbounds [8 x [2 x i32]], [8 x [2 x i32]]* %11, i64 0, i64 0
  %127 = getelementptr inbounds [2 x i32], [2 x i32]* %126, i64 0, i64 1
  %128 = load i32, i32* %127, align 4
  %129 = icmp sge i32 %128, 0
  br i1 %129, label %130, label %140

130:                                              ; preds = %125
  %131 = getelementptr inbounds [8 x [2 x i32]], [8 x [2 x i32]]* %11, i64 0, i64 0
  %132 = getelementptr inbounds [2 x i32], [2 x i32]* %131, i64 0, i64 0
  %133 = load i32, i32* %132, align 16
  %134 = getelementptr inbounds [8 x [2 x i32]], [8 x [2 x i32]]* %11, i64 0, i64 0
  %135 = getelementptr inbounds [2 x i32], [2 x i32]* %134, i64 0, i64 1
  %136 = load i32, i32* %135, align 4
  %137 = call i32 (i8*, ...) @printf(i8* getelementptr inbounds ([7 x i8], [7 x i8]* @.str.2, i64 0, i64 0), i32 %133, i32 %136)
  %138 = load i32, i32* %9, align 4
  %139 = add nsw i32 %138, 1
  store i32 %139, i32* %9, align 4
  br label %140

140:                                              ; preds = %130, %125, %120
  store i32 1, i32* %3, align 4
  br label %141

141:                                              ; preds = %175, %140
  %142 = load i32, i32* %3, align 4
  %143 = load i32, i32* %1, align 4
  %144 = icmp slt i32 %142, %143
  br i1 %144, label %145, label %178

145:                                              ; preds = %141
  %146 = load i32, i32* %3, align 4
  %147 = sext i32 %146 to i64
  %148 = getelementptr inbounds [8 x [2 x i32]], [8 x [2 x i32]]* %11, i64 0, i64 %147
  %149 = getelementptr inbounds [2 x i32], [2 x i32]* %148, i64 0, i64 0
  %150 = load i32, i32* %149, align 8
  %151 = icmp sgt i32 %150, 0
  br i1 %151, label %159, label %152

152:                                              ; preds = %145
  %153 = load i32, i32* %3, align 4
  %154 = sext i32 %153 to i64
  %155 = getelementptr inbounds [8 x [2 x i32]], [8 x [2 x i32]]* %11, i64 0, i64 %154
  %156 = getelementptr inbounds [2 x i32], [2 x i32]* %155, i64 0, i64 1
  %157 = load i32, i32* %156, align 4
  %158 = icmp sgt i32 %157, 0
  br i1 %158, label %159, label %173

159:                                              ; preds = %152, %145
  %160 = load i32, i32* %3, align 4
  %161 = sext i32 %160 to i64
  %162 = getelementptr inbounds [8 x [2 x i32]], [8 x [2 x i32]]* %11, i64 0, i64 %161
  %163 = getelementptr inbounds [2 x i32], [2 x i32]* %162, i64 0, i64 0
  %164 = load i32, i32* %163, align 8
  %165 = load i32, i32* %3, align 4
  %166 = sext i32 %165 to i64
  %167 = getelementptr inbounds [8 x [2 x i32]], [8 x [2 x i32]]* %11, i64 0, i64 %166
  %168 = getelementptr inbounds [2 x i32], [2 x i32]* %167, i64 0, i64 1
  %169 = load i32, i32* %168, align 4
  %170 = call i32 (i8*, ...) @printf(i8* getelementptr inbounds ([7 x i8], [7 x i8]* @.str.2, i64 0, i64 0), i32 %164, i32 %169)
  %171 = load i32, i32* %9, align 4
  %172 = add nsw i32 %171, 1
  store i32 %172, i32* %9, align 4
  br label %174

173:                                              ; preds = %152
  br label %175

174:                                              ; preds = %159
  br label %175

175:                                              ; preds = %174, %173
  %176 = load i32, i32* %3, align 4
  %177 = add nsw i32 %176, 1
  store i32 %177, i32* %3, align 4
  br label %141

178:                                              ; preds = %141
  %179 = load i32, i32* %9, align 4
  %180 = icmp eq i32 %179, 0
  br i1 %180, label %181, label %183

181:                                              ; preds = %178
  %182 = call i32 (i8*, ...) @printf(i8* getelementptr inbounds ([3 x i8], [3 x i8]* @.str.3, i64 0, i64 0))
  br label %183

183:                                              ; preds = %181, %178
  ret void
}

; Function Attrs: argmemonly nounwind willreturn
declare void @llvm.memset.p0i8.i64(i8* nocapture writeonly, i8, i64, i1 immarg) #1

declare dso_local i32 @__isoc99_scanf(i8*, ...) #2

declare dso_local i32 @printf(i8*, ...) #2


!llvm.module.flags = !{!0}
!llvm.ident = !{!1}

!0 = !{i32 1, !"wchar_size", i32 4}
!1 = !{!"clang version 10.0.0-4ubuntu1 "}
